; ModuleID = '21/2005.c'
source_filename = "21/2005.c"
target datalayout = "e-m:e-p270:32:32-p271:32:32-p272:64:64-i64:64-f80:128-n8:16:32:64-S128"
target triple = "x86_64-pc-linux-gnu"

@.str = private unnamed_addr constant [3 x i8] c"%d\00", align 1
@.str.1 = private unnamed_addr constant [4 x i8] c",%d\00", align 1

; Function Attrs: noinline nounwind uwtable
define dso_local void @main() #0 {
  %1 = alloca i32, align 4
  %2 = alloca [300 x i32], align 16
  %3 = alloca i32, align 4
  %4 = alloca i32, align 4
  %5 = alloca i32, align 4
  %6 = alloca i32, align 4
  %7 = alloca i32, align 4
  %8 = alloca float, align 4
  store float 0.000000e+00, float* %8, align 4
  %9 = call i32 (i8*, ...) @__isoc99_scanf(i8* getelementptr inbounds ([3 x i8], [3 x i8]* @.str, i64 0, i64 0), i32* %1)
  store i32 0, i32* %7, align 4
  br label %10

10:                                               ; preds = %26, %0
  %11 = load i32, i32* %7, align 4
  %12 = load i32, i32* %1, align 4
  %13 = icmp slt i32 %11, %12
  br i1 %13, label %14, label %29

14:                                               ; preds = %10
  %15 = load i32, i32* %7, align 4
  %16 = sext i32 %15 to i64
  %17 = getelementptr inbounds [300 x i32], [300 x i32]* %2, i64 0, i64 %16
  %18 = call i32 (i8*, ...) @__isoc99_scanf(i8* getelementptr inbounds ([3 x i8], [3 x i8]* @.str, i64 0, i64 0), i32* %17)
  %19 = load i32, i32* %7, align 4
  %20 = sext i32 %19 to i64
  %21 = getelementptr inbounds [300 x i32], [300 x i32]* %2, i64 0, i64 %20
  %22 = load i32, i32* %21, align 4
  %23 = sitofp i32 %22 to float
  %24 = load float, float* %8, align 4
  %25 = fadd float %24, %23
  store float %25, float* %8, align 4
  br label %26

26:                                               ; preds = %14
  %27 = load i32, i32* %7, align 4
  %28 = add nsw i32 %27, 1
  store i32 %28, i32* %7, align 4
  br label %10

29:                                               ; preds = %10
  %30 = getelementptr inbounds [300 x i32], [300 x i32]* %2, i64 0, i64 0
  %31 = load i32, i32* %30, align 16
  store i32 %31, i32* %3, align 4
  store i32 1, i32* %5, align 4
  %32 = load i32, i32* %1, align 4
  %33 = sitofp i32 %32 to float
  %34 = load float, float* %8, align 4
  %35 = fdiv float %34, %33
  store float %35, float* %8, align 4
  store i32 1, i32* %7, align 4
  br label %36

36:                                               ; preds = %64, %29
  %37 = load i32, i32* %7, align 4
  %38 = load i32, i32* %1, align 4
  %39 = icmp slt i32 %37, %38
  br i1 %39, label %40, label %67

40:                                               ; preds = %36
  %41 = load i32, i32* %7, align 4
  %42 = sext i32 %41 to i64
  %43 = getelementptr inbounds [300 x i32], [300 x i32]* %2, i64 0, i64 %42
  %44 = load i32, i32* %43, align 4
  %45 = load i32, i32* %3, align 4
  %46 = icmp sgt i32 %44, %45
  br i1 %46, label %47, label %52

47:                                               ; preds = %40
  %48 = load i32, i32* %7, align 4
  %49 = sext i32 %48 to i64
  %50 = getelementptr inbounds [300 x i32], [300 x i32]* %2, i64 0, i64 %49
  %51 = load i32, i32* %50, align 4
  store i32 %51, i32* %3, align 4
  store i32 1, i32* %5, align 4
  br label %63

52:                                               ; preds = %40
  %53 = load i32, i32* %7, align 4
  %54 = sext i32 %53 to i64
  %55 = getelementptr inbounds [300 x i32], [300 x i32]* %2, i64 0, i64 %54
  %56 = load i32, i32* %55, align 4
  %57 = load i32, i32* %3, align 4
  %58 = icmp eq i32 %56, %57
  br i1 %58, label %59, label %62

59:                                               ; preds = %52
  %60 = load i32, i32* %5, align 4
  %61 = add nsw i32 %60, 1
  store i32 %61, i32* %5, align 4
  br label %62

62:                                               ; preds = %59, %52
  br label %63

63:                                               ; preds = %62, %47
  br label %64

64:                                               ; preds = %63
  %65 = load i32, i32* %7, align 4
  %66 = add nsw i32 %65, 1
  store i32 %66, i32* %7, align 4
  br label %36

67:                                               ; preds = %36
  %68 = getelementptr inbounds [300 x i32], [300 x i32]* %2, i64 0, i64 0
  %69 = load i32, i32* %68, align 16
  store i32 %69, i32* %4, align 4
  store i32 1, i32* %6, align 4
  store i32 1, i32* %7, align 4
  br label %70

70:                                               ; preds = %98, %67
  %71 = load i32, i32* %7, align 4
  %72 = load i32, i32* %1, align 4
  %73 = icmp slt i32 %71, %72
  br i1 %73, label %74, label %101

74:                                               ; preds = %70
  %75 = load i32, i32* %7, align 4
  %76 = sext i32 %75 to i64
  %77 = getelementptr inbounds [300 x i32], [300 x i32]* %2, i64 0, i64 %76
  %78 = load i32, i32* %77, align 4
  %79 = load i32, i32* %4, align 4
  %80 = icmp slt i32 %78, %79
  br i1 %80, label %81, label %86

81:                                               ; preds = %74
  %82 = load i32, i32* %7, align 4
  %83 = sext i32 %82 to i64
  %84 = getelementptr inbounds [300 x i32], [300 x i32]* %2, i64 0, i64 %83
  %85 = load i32, i32* %84, align 4
  store i32 %85, i32* %4, align 4
  store i32 1, i32* %6, align 4
  br label %97

86:                                               ; preds = %74
  %87 = load i32, i32* %4, align 4
  %88 = load i32, i32* %7, align 4
  %89 = sext i32 %88 to i64
  %90 = getelementptr inbounds [300 x i32], [300 x i32]* %2, i64 0, i64 %89
  %91 = load i32, i32* %90, align 4
  %92 = icmp eq i32 %87, %91
  br i1 %92, label %93, label %96

93:                                               ; preds = %86
  %94 = load i32, i32* %6, align 4
  %95 = add nsw i32 %94, 1
  store i32 %95, i32* %6, align 4
  br label %96

96:                                               ; preds = %93, %86
  br label %97

97:                                               ; preds = %96, %81
  br label %98

98:                                               ; preds = %97
  %99 = load i32, i32* %7, align 4
  %100 = add nsw i32 %99, 1
  store i32 %100, i32* %7, align 4
  br label %70

101:                                              ; preds = %70
  %102 = load i32, i32* %4, align 4
  %103 = load i32, i32* %3, align 4
  %104 = icmp eq i32 %102, %103
  br i1 %104, label %105, label %119

105:                                              ; preds = %101
  %106 = load i32, i32* %3, align 4
  %107 = call i32 (i8*, ...) @printf(i8* getelementptr inbounds ([3 x i8], [3 x i8]* @.str, i64 0, i64 0), i32 %106)
  store i32 1, i32* %7, align 4
  br label %108

108:                                              ; preds = %115, %105
  %109 = load i32, i32* %7, align 4
  %110 = load i32, i32* %5, align 4
  %111 = icmp slt i32 %109, %110
  br i1 %111, label %112, label %118

112:                                              ; preds = %108
  %113 = load i32, i32* %3, align 4
  %114 = call i32 (i8*, ...) @printf(i8* getelementptr inbounds ([4 x i8], [4 x i8]* @.str.1, i64 0, i64 0), i32 %113)
  br label %115

115:                                              ; preds = %112
  %116 = load i32, i32* %7, align 4
  %117 = add nsw i32 %116, 1
  store i32 %117, i32* %7, align 4
  br label %108

118:                                              ; preds = %108
  br label %190

119:                                              ; preds = %101
  %120 = load i32, i32* %3, align 4
  %121 = load i32, i32* %4, align 4
  %122 = add nsw i32 %120, %121
  %123 = sitofp i32 %122 to float
  %124 = load float, float* %8, align 4
  %125 = fmul float 2.000000e+00, %124
  %126 = fcmp oeq float %123, %125
  br i1 %126, label %127, label %152

127:                                              ; preds = %119
  %128 = load i32, i32* %4, align 4
  %129 = call i32 (i8*, ...) @printf(i8* getelementptr inbounds ([3 x i8], [3 x i8]* @.str, i64 0, i64 0), i32 %128)
  store i32 1, i32* %7, align 4
  br label %130

130:                                              ; preds = %137, %127
  %131 = load i32, i32* %7, align 4
  %132 = load i32, i32* %6, align 4
  %133 = icmp slt i32 %131, %132
  br i1 %133, label %134, label %140

134:                                              ; preds = %130
  %135 = load i32, i32* %4, align 4
  %136 = call i32 (i8*, ...) @printf(i8* getelementptr inbounds ([4 x i8], [4 x i8]* @.str.1, i64 0, i64 0), i32 %135)
  br label %137

137:                                              ; preds = %134
  %138 = load i32, i32* %7, align 4
  %139 = add nsw i32 %138, 1
  store i32 %139, i32* %7, align 4
  br label %130

140:                                              ; preds = %130
  store i32 0, i32* %7, align 4
  br label %141

141:                                              ; preds = %148, %140
  %142 = load i32, i32* %7, align 4
  %143 = load i32, i32* %5, align 4
  %144 = icmp slt i32 %142, %143
  br i1 %144, label %145, label %151

145:                                              ; preds = %141
  %146 = load i32, i32* %3, align 4
  %147 = call i32 (i8*, ...) @printf(i8* getelementptr inbounds ([4 x i8], [4 x i8]* @.str.1, i64 0, i64 0), i32 %146)
  br label %148

148:                                              ; preds = %145
  %149 = load i32, i32* %7, align 4
  %150 = add nsw i32 %149, 1
  store i32 %150, i32* %7, align 4
  br label %141

151:                                              ; preds = %141
  br label %189

152:                                              ; preds = %119
  %153 = load i32, i32* %3, align 4
  %154 = load i32, i32* %4, align 4
  %155 = add nsw i32 %153, %154
  %156 = sitofp i32 %155 to float
  %157 = load float, float* %8, align 4
  %158 = fmul float %157, 2.000000e+00
  %159 = fcmp ogt float %156, %158
  br i1 %159, label %160, label %174

160:                                              ; preds = %152
  %161 = load i32, i32* %3, align 4
  %162 = call i32 (i8*, ...) @printf(i8* getelementptr inbounds ([3 x i8], [3 x i8]* @.str, i64 0, i64 0), i32 %161)
  store i32 1, i32* %7, align 4
  br label %163

163:                                              ; preds = %170, %160
  %164 = load i32, i32* %7, align 4
  %165 = load i32, i32* %5, align 4
  %166 = icmp slt i32 %164, %165
  br i1 %166, label %167, label %173

167:                                              ; preds = %163
  %168 = load i32, i32* %3, align 4
  %169 = call i32 (i8*, ...) @printf(i8* getelementptr inbounds ([4 x i8], [4 x i8]* @.str.1, i64 0, i64 0), i32 %168)
  br label %170

170:                                              ; preds = %167
  %171 = load i32, i32* %7, align 4
  %172 = add nsw i32 %171, 1
  store i32 %172, i32* %7, align 4
  br label %163

173:                                              ; preds = %163
  br label %188

174:                                              ; preds = %152
  %175 = load i32, i32* %4, align 4
  %176 = call i32 (i8*, ...) @printf(i8* getelementptr inbounds ([3 x i8], [3 x i8]* @.str, i64 0, i64 0), i32 %175)
  store i32 1, i32* %7, align 4
  br label %177

177:                                              ; preds = %184, %174
  %178 = load i32, i32* %7, align 4
  %179 = load i32, i32* %6, align 4
  %180 = icmp slt i32 %178, %179
  br i1 %180, label %181, label %187

181:                                              ; preds = %177
  %182 = load i32, i32* %4, align 4
  %183 = call i32 (i8*, ...) @printf(i8* getelementptr inbounds ([4 x i8], [4 x i8]* @.str.1, i64 0, i64 0), i32 %182)
  br label %184

184:                                              ; preds = %181
  %185 = load i32, i32* %7, align 4
  %186 = add nsw i32 %185, 1
  store i32 %186, i32* %7, align 4
  br label %177

187:                                              ; preds = %177
  br label %188

188:                                              ; preds = %187, %173
  br label %189

189:                                              ; preds = %188, %151
  br label %190

190:                                              ; preds = %189, %118
  ret void
}

declare dso_local i32 @__isoc99_scanf(i8*, ...) #1

declare dso_local i32 @printf(i8*, ...) #1


!llvm.module.flags = !{!0}
!llvm.ident = !{!1}

!0 = !{i32 1, !"wchar_size", i32 4}
!1 = !{!"clang version 10.0.0-4ubuntu1 "}
